target datalayout = "e-m:e-p270:32:32-p271:32:32-p272:64:64-i64:64-i128:128-f80:128-n8:16:32:64-S128"
target triple = "x86_64-pc-linux-gnu"

%struct.TupleTableSlotOps = type { i64, ptr, ptr, ptr, ptr, ptr, ptr, ptr, ptr, ptr, ptr, ptr, ptr }
%struct.ResultRelInfo = type { i32, i32, ptr, i32, ptr, ptr, i16, ptr, i8, ptr, ptr, ptr, i8, i8, ptr, ptr, ptr, ptr, ptr, ptr, ptr, ptr, ptr, ptr, i8, i32, i32, i32, ptr, ptr, ptr, ptr, ptr, ptr, ptr, i32, i32, ptr, ptr, ptr, ptr, [3 x ptr], ptr, ptr, ptr, i8, ptr, i8, ptr, ptr, ptr, ptr }
%struct.TupleDescData = type { i32, i32, i32, i32, ptr, [0 x %struct.CompactAttribute] }
%struct.CompactAttribute = type { i32, i16, i8, i8, i8, i8, i8, i8, i8 }
%struct.ExprContext = type { i32, ptr, ptr, ptr, ptr, ptr, ptr, ptr, ptr, ptr, i64, i8, i64, i8, ptr, ptr, ptr, ptr }
%struct.TupleTableSlot = type { i32, i16, i16, ptr, ptr, ptr, ptr, ptr, %struct.ItemPointerData, i32 }
%struct.ItemPointerData = type { %struct.BlockIdData, i16 }
%struct.BlockIdData = type { i16, i16 }
%struct.ExprState = type { i32, i8, i8, i64, ptr, ptr, ptr, ptr, ptr, i32, i32, ptr, ptr, ptr, ptr, ptr, ptr, ptr }
%struct.ProjectionInfo = type { i32, %struct.ExprState, ptr }
%struct.ModifyTableState = type { %struct.PlanState, i32, i8, i8, i32, ptr, ptr, %struct.EPQState, i8, i32, i32, i32, ptr, ptr, ptr, ptr, ptr, i32, ptr, ptr, double, double, double, ptr, ptr, ptr }
%struct.PlanState = type { i32, ptr, ptr, ptr, ptr, ptr, ptr, ptr, ptr, ptr, ptr, ptr, ptr, ptr, ptr, ptr, ptr, ptr, i8, ptr, ptr, ptr, ptr, ptr, i8, i8, i8, i8, i8, i8, i8, i8 }
%struct.EPQState = type { ptr, i32, ptr, ptr, ptr, ptr, ptr, ptr, ptr, ptr, ptr, ptr, ptr }
%struct.ForEachState = type { ptr, i32 }
%struct.List = type { i32, i32, i32, ptr, [0 x %union.ListCell] }
%union.ListCell = type { ptr }
%struct.ModifyTableContext = type { ptr, ptr, ptr, ptr, %struct.TM_FailureData, ptr, ptr }
%struct.TM_FailureData = type { %struct.ItemPointerData, i32, i32, i8 }
%struct.MergeActionState = type { i32, ptr, ptr, ptr }
%struct.MergeAction = type { i32, i32, i32, i32, ptr, ptr, ptr }

@.str.1 = private unnamed_addr constant [18 x i8] c"nodeModifyTable.c\00", align 1
@CurrentMemoryContext = external global ptr, align 8
@.str.16 = private unnamed_addr constant [48 x i8] c"unknown action in MERGE WHEN NOT MATCHED clause\00", align 1
@__func__.ExecMergeNotMatched = private unnamed_addr constant [20 x i8] c"ExecMergeNotMatched\00", align 1

; Function Attrs: inlinehint nounwind uwtable
define internal ptr @MemoryContextSwitchTo(ptr noundef %0) #3 {
  %2 = alloca ptr, align 8
  %3 = alloca ptr, align 8
  store ptr %0, ptr %2, align 8
  call void @llvm.lifetime.start.p0(i64 8, ptr %3) #8
  %4 = load ptr, ptr @CurrentMemoryContext, align 8
  store ptr %4, ptr %3, align 8
  %5 = load ptr, ptr %2, align 8
  store ptr %5, ptr @CurrentMemoryContext, align 8
  %6 = load ptr, ptr %3, align 8
  call void @llvm.lifetime.end.p0(i64 8, ptr %3) #8
  ret ptr %6
}

; Function Attrs: inlinehint nounwind uwtable
define internal ptr @ExecClearTuple(ptr noundef %0) #3 {
  %2 = alloca ptr, align 8
  store ptr %0, ptr %2, align 8
  %3 = load ptr, ptr %2, align 8
  %4 = getelementptr inbounds nuw %struct.TupleTableSlot, ptr %3, i32 0, i32 3
  %5 = load ptr, ptr %4, align 8
  %6 = getelementptr inbounds nuw %struct.TupleTableSlotOps, ptr %5, i32 0, i32 3
  %7 = load ptr, ptr %6, align 8
  %8 = load ptr, ptr %2, align 8
  call void %7(ptr noundef %8)
  %9 = load ptr, ptr %2, align 8
  ret ptr %9
}

; Function Attrs: inlinehint nounwind uwtable
define internal zeroext i1 @DatumGetBool(i64 noundef %0) #3 {
  %2 = alloca i64, align 8
  store i64 %0, ptr %2, align 8
  %3 = load i64, ptr %2, align 8
  %4 = icmp ne i64 %3, 0
  ret i1 %4
}

; Function Attrs: inlinehint nounwind uwtable
define internal i64 @ExecEvalExprSwitchContext(ptr noundef %0, ptr noundef %1, ptr noundef %2) #3 {
  %4 = alloca ptr, align 8
  %5 = alloca ptr, align 8
  %6 = alloca ptr, align 8
  %7 = alloca i64, align 8
  %8 = alloca ptr, align 8
  store ptr %0, ptr %4, align 8
  store ptr %1, ptr %5, align 8
  store ptr %2, ptr %6, align 8
  call void @llvm.lifetime.start.p0(i64 8, ptr %7) #8
  call void @llvm.lifetime.start.p0(i64 8, ptr %8) #8
  %9 = load ptr, ptr %5, align 8
  %10 = getelementptr inbounds nuw %struct.ExprContext, ptr %9, i32 0, i32 5
  %11 = load ptr, ptr %10, align 8
  %12 = call ptr @MemoryContextSwitchTo(ptr noundef %11)
  store ptr %12, ptr %8, align 8
  %13 = load ptr, ptr %4, align 8
  %14 = getelementptr inbounds nuw %struct.ExprState, ptr %13, i32 0, i32 6
  %15 = load ptr, ptr %14, align 8
  %16 = load ptr, ptr %4, align 8
  %17 = load ptr, ptr %5, align 8
  %18 = load ptr, ptr %6, align 8
  %19 = call i64 %15(ptr noundef %16, ptr noundef %17, ptr noundef %18)
  store i64 %19, ptr %7, align 8
  %20 = load ptr, ptr %8, align 8
  %21 = call ptr @MemoryContextSwitchTo(ptr noundef %20)
  %22 = load i64, ptr %7, align 8
  call void @llvm.lifetime.end.p0(i64 8, ptr %8) #8
  call void @llvm.lifetime.end.p0(i64 8, ptr %7) #8
  ret i64 %22
}

; Function Attrs: inlinehint nounwind uwtable
define internal ptr @ExecProject(ptr noundef %0) #3 {
  %2 = alloca ptr, align 8
  %3 = alloca ptr, align 8
  %4 = alloca ptr, align 8
  %5 = alloca ptr, align 8
  %6 = alloca i8, align 1
  store ptr %0, ptr %2, align 8
  call void @llvm.lifetime.start.p0(i64 8, ptr %3) #8
  %7 = load ptr, ptr %2, align 8
  %8 = getelementptr inbounds nuw %struct.ProjectionInfo, ptr %7, i32 0, i32 2
  %9 = load ptr, ptr %8, align 8
  store ptr %9, ptr %3, align 8
  call void @llvm.lifetime.start.p0(i64 8, ptr %4) #8
  %10 = load ptr, ptr %2, align 8
  %11 = getelementptr inbounds nuw %struct.ProjectionInfo, ptr %10, i32 0, i32 1
  store ptr %11, ptr %4, align 8
  call void @llvm.lifetime.start.p0(i64 8, ptr %5) #8
  %12 = load ptr, ptr %4, align 8
  %13 = getelementptr inbounds nuw %struct.ExprState, ptr %12, i32 0, i32 4
  %14 = load ptr, ptr %13, align 8
  store ptr %14, ptr %5, align 8
  call void @llvm.lifetime.start.p0(i64 1, ptr %6) #8
  %15 = load ptr, ptr %5, align 8
  %16 = call ptr @ExecClearTuple(ptr noundef %15)
  %17 = load ptr, ptr %4, align 8
  %18 = load ptr, ptr %3, align 8
  %19 = call i64 @ExecEvalExprSwitchContext(ptr noundef %17, ptr noundef %18, ptr noundef %6)
  %20 = load ptr, ptr %5, align 8
  %21 = getelementptr inbounds nuw %struct.TupleTableSlot, ptr %20, i32 0, i32 1
  %22 = load i16, ptr %21, align 4
  %23 = zext i16 %22 to i32
  %24 = and i32 %23, -3
  %25 = trunc i32 %24 to i16
  store i16 %25, ptr %21, align 4
  %26 = load ptr, ptr %5, align 8
  %27 = getelementptr inbounds nuw %struct.TupleTableSlot, ptr %26, i32 0, i32 4
  %28 = load ptr, ptr %27, align 8
  %29 = getelementptr inbounds nuw %struct.TupleDescData, ptr %28, i32 0, i32 0
  %30 = load i32, ptr %29, align 8
  %31 = trunc i32 %30 to i16
  %32 = load ptr, ptr %5, align 8
  %33 = getelementptr inbounds nuw %struct.TupleTableSlot, ptr %32, i32 0, i32 2
  store i16 %31, ptr %33, align 2
  %34 = load ptr, ptr %5, align 8
  call void @llvm.lifetime.end.p0(i64 1, ptr %6) #8
  call void @llvm.lifetime.end.p0(i64 8, ptr %5) #8
  call void @llvm.lifetime.end.p0(i64 8, ptr %4) #8
  call void @llvm.lifetime.end.p0(i64 8, ptr %3) #8
  ret ptr %34
}

; Function Attrs: inlinehint nounwind uwtable
define internal zeroext i1 @ExecQual(ptr noundef %0, ptr noundef %1) #3 {
  %3 = alloca i1, align 1
  %4 = alloca ptr, align 8
  %5 = alloca ptr, align 8
  %6 = alloca i64, align 8
  %7 = alloca i8, align 1
  %8 = alloca i32, align 4
  store ptr %0, ptr %4, align 8
  store ptr %1, ptr %5, align 8
  call void @llvm.lifetime.start.p0(i64 8, ptr %6) #8
  call void @llvm.lifetime.start.p0(i64 1, ptr %7) #8
  %9 = load ptr, ptr %4, align 8
  %10 = icmp eq ptr %9, null
  br i1 %10, label %11, label %12

11:                                               ; preds = %2
  store i1 true, ptr %3, align 1
  store i32 1, ptr %8, align 4
  br label %18

12:                                               ; preds = %2
  %13 = load ptr, ptr %4, align 8
  %14 = load ptr, ptr %5, align 8
  %15 = call i64 @ExecEvalExprSwitchContext(ptr noundef %13, ptr noundef %14, ptr noundef %7)
  store i64 %15, ptr %6, align 8
  %16 = load i64, ptr %6, align 8
  %17 = call zeroext i1 @DatumGetBool(i64 noundef %16)
  store i1 %17, ptr %3, align 1
  store i32 1, ptr %8, align 4
  br label %18

18:                                               ; preds = %12, %11
  call void @llvm.lifetime.end.p0(i64 1, ptr %7) #8
  call void @llvm.lifetime.end.p0(i64 8, ptr %6) #8
  %19 = load i1, ptr %3, align 1
  ret i1 %19
}

; Function Attrs: nounwind uwtable
define internal ptr @ExecMergeNotMatched(ptr noundef %0, ptr noundef %1, i1 noundef zeroext %2) #0 {
  %4 = alloca ptr, align 8
  %5 = alloca ptr, align 8
  %6 = alloca i8, align 1
  %7 = alloca ptr, align 8
  %8 = alloca ptr, align 8
  %9 = alloca ptr, align 8
  %10 = alloca ptr, align 8
  %11 = alloca ptr, align 8
  %12 = alloca %struct.ForEachState, align 8
  %13 = alloca i32, align 4
  %14 = alloca ptr, align 8
  %15 = alloca i32, align 4
  %16 = alloca ptr, align 8
  store ptr %0, ptr %4, align 8
  store ptr %1, ptr %5, align 8
  %17 = zext i1 %2 to i8
  store i8 %17, ptr %6, align 1
  call void @llvm.lifetime.start.p0(i64 8, ptr %7) #8
  %18 = load ptr, ptr %4, align 8
  %19 = getelementptr inbounds nuw %struct.ModifyTableContext, ptr %18, i32 0, i32 0
  %20 = load ptr, ptr %19, align 8
  store ptr %20, ptr %7, align 8
  call void @llvm.lifetime.start.p0(i64 8, ptr %8) #8
  %21 = load ptr, ptr %7, align 8
  %22 = getelementptr inbounds nuw %struct.ModifyTableState, ptr %21, i32 0, i32 0
  %23 = getelementptr inbounds nuw %struct.PlanState, ptr %22, i32 0, i32 16
  %24 = load ptr, ptr %23, align 8
  store ptr %24, ptr %8, align 8
  call void @llvm.lifetime.start.p0(i64 8, ptr %9) #8
  call void @llvm.lifetime.start.p0(i64 8, ptr %10) #8
  store ptr null, ptr %10, align 8
  call void @llvm.lifetime.start.p0(i64 8, ptr %11) #8
  %25 = load ptr, ptr %5, align 8
  %26 = getelementptr inbounds nuw %struct.ResultRelInfo, ptr %25, i32 0, i32 41
  %27 = getelementptr inbounds [3 x ptr], ptr %26, i64 0, i64 2
  %28 = load ptr, ptr %27, align 8
  store ptr %28, ptr %9, align 8
  %29 = load ptr, ptr %8, align 8
  %30 = getelementptr inbounds nuw %struct.ExprContext, ptr %29, i32 0, i32 1
  store ptr null, ptr %30, align 8
  %31 = load ptr, ptr %4, align 8
  %32 = getelementptr inbounds nuw %struct.ModifyTableContext, ptr %31, i32 0, i32 3
  %33 = load ptr, ptr %32, align 8
  %34 = load ptr, ptr %8, align 8
  %35 = getelementptr inbounds nuw %struct.ExprContext, ptr %34, i32 0, i32 2
  store ptr %33, ptr %35, align 8
  %36 = load ptr, ptr %8, align 8
  %37 = getelementptr inbounds nuw %struct.ExprContext, ptr %36, i32 0, i32 3
  store ptr null, ptr %37, align 8
  call void @llvm.lifetime.start.p0(i64 16, ptr %12) #8
  %38 = getelementptr inbounds nuw %struct.ForEachState, ptr %12, i32 0, i32 0
  %39 = load ptr, ptr %9, align 8
  store ptr %39, ptr %38, align 8
  %40 = getelementptr inbounds nuw %struct.ForEachState, ptr %12, i32 0, i32 1
  store i32 0, ptr %40, align 8
  %41 = getelementptr i8, ptr %12, i64 12
  call void @llvm.memset.p0.i64(ptr align 4 %41, i8 0, i64 4, i1 false)
  br label %42

42:                                               ; preds = %118, %3
  %43 = getelementptr inbounds nuw %struct.ForEachState, ptr %12, i32 0, i32 0
  %44 = load ptr, ptr %43, align 8
  %45 = icmp ne ptr %44, null
  br i1 %45, label %46, label %63

46:                                               ; preds = %42
  %47 = getelementptr inbounds nuw %struct.ForEachState, ptr %12, i32 0, i32 1
  %48 = load i32, ptr %47, align 8
  %49 = getelementptr inbounds nuw %struct.ForEachState, ptr %12, i32 0, i32 0
  %50 = load ptr, ptr %49, align 8
  %51 = getelementptr inbounds nuw %struct.List, ptr %50, i32 0, i32 1
  %52 = load i32, ptr %51, align 4
  %53 = icmp slt i32 %48, %52
  br i1 %53, label %54, label %63

54:                                               ; preds = %46
  %55 = getelementptr inbounds nuw %struct.ForEachState, ptr %12, i32 0, i32 0
  %56 = load ptr, ptr %55, align 8
  %57 = getelementptr inbounds nuw %struct.List, ptr %56, i32 0, i32 3
  %58 = load ptr, ptr %57, align 8
  %59 = getelementptr inbounds nuw %struct.ForEachState, ptr %12, i32 0, i32 1
  %60 = load i32, ptr %59, align 8
  %61 = sext i32 %60 to i64
  %62 = getelementptr inbounds %union.ListCell, ptr %58, i64 %61
  store ptr %62, ptr %11, align 8
  br label %64

63:                                               ; preds = %46, %42
  store ptr null, ptr %11, align 8
  br label %64

64:                                               ; preds = %63, %54
  %65 = phi i32 [ 1, %54 ], [ 0, %63 ]
  %66 = icmp ne i32 %65, 0
  br i1 %66, label %68, label %67

67:                                               ; preds = %64
  store i32 2, ptr %13, align 4
  br label %122

68:                                               ; preds = %64
  call void @llvm.lifetime.start.p0(i64 8, ptr %14) #8
  %69 = load ptr, ptr %11, align 8
  %70 = load ptr, ptr %69, align 8
  store ptr %70, ptr %14, align 8
  call void @llvm.lifetime.start.p0(i64 4, ptr %15) #8
  %71 = load ptr, ptr %14, align 8
  %72 = getelementptr inbounds nuw %struct.MergeActionState, ptr %71, i32 0, i32 1
  %73 = load ptr, ptr %72, align 8
  %74 = getelementptr inbounds nuw %struct.MergeAction, ptr %73, i32 0, i32 2
  %75 = load i32, ptr %74, align 8
  store i32 %75, ptr %15, align 4
  call void @llvm.lifetime.start.p0(i64 8, ptr %16) #8
  %76 = load ptr, ptr %14, align 8
  %77 = getelementptr inbounds nuw %struct.MergeActionState, ptr %76, i32 0, i32 3
  %78 = load ptr, ptr %77, align 8
  %79 = load ptr, ptr %8, align 8
  %80 = call zeroext i1 @ExecQual(ptr noundef %78, ptr noundef %79)
  br i1 %80, label %82, label %81

81:                                               ; preds = %68
  store i32 4, ptr %13, align 4
  br label %116

82:                                               ; preds = %68
  %83 = load i32, ptr %15, align 4
  switch i32 %83, label %104 [
    i32 3, label %84
    i32 7, label %115
  ]

84:                                               ; preds = %82
  %85 = load ptr, ptr %14, align 8
  %86 = getelementptr inbounds nuw %struct.MergeActionState, ptr %85, i32 0, i32 2
  %87 = load ptr, ptr %86, align 8
  %88 = call ptr @ExecProject(ptr noundef %87)
  store ptr %88, ptr %16, align 8
  %89 = load ptr, ptr %14, align 8
  %90 = load ptr, ptr %7, align 8
  %91 = getelementptr inbounds nuw %struct.ModifyTableState, ptr %90, i32 0, i32 18
  store ptr %89, ptr %91, align 8
  %92 = load ptr, ptr %4, align 8
  %93 = load ptr, ptr %7, align 8
  %94 = getelementptr inbounds nuw %struct.ModifyTableState, ptr %93, i32 0, i32 6
  %95 = load ptr, ptr %94, align 8
  %96 = load ptr, ptr %16, align 8
  %97 = load i8, ptr %6, align 1, !range !4, !noundef !5
  %98 = trunc i8 %97 to i1
  %99 = call ptr @ExecInsert(ptr noundef %92, ptr noundef %95, ptr noundef %96, i1 noundef zeroext %98, ptr noundef null, ptr noundef null)
  store ptr %99, ptr %10, align 8
  %100 = load ptr, ptr %7, align 8
  %101 = getelementptr inbounds nuw %struct.ModifyTableState, ptr %100, i32 0, i32 20
  %102 = load double, ptr %101, align 8
  %103 = fadd double %102, 1.000000e+00
  store double %103, ptr %101, align 8
  br label %115

104:                                              ; preds = %82
  br label %105

105:                                              ; preds = %104
  br i1 true, label %106, label %108

106:                                              ; preds = %105
  %107 = call zeroext i1 @errstart_cold(i32 noundef 21, ptr noundef null) #9
  br i1 %107, label %110, label %112

108:                                              ; preds = %105
  %109 = call zeroext i1 @errstart(i32 noundef 21, ptr noundef null)
  br i1 %109, label %110, label %112

110:                                              ; preds = %108, %106
  %111 = call i32 (ptr, ...) @errmsg_internal(ptr noundef @.str.16)
  call void @errfinish(ptr noundef @.str.1, i32 noundef 3627, ptr noundef @__func__.ExecMergeNotMatched)
  br label %112

112:                                              ; preds = %110, %108, %106
  unreachable

113:                                              ; No predecessors!
  br label %114

114:                                              ; preds = %113
  br label %115

115:                                              ; preds = %114, %82, %84
  store i32 2, ptr %13, align 4
  br label %116

116:                                              ; preds = %115, %81
  call void @llvm.lifetime.end.p0(i64 8, ptr %16) #8
  call void @llvm.lifetime.end.p0(i64 4, ptr %15) #8
  call void @llvm.lifetime.end.p0(i64 8, ptr %14) #8
  %117 = load i32, ptr %13, align 4
  switch i32 %117, label %122 [
    i32 4, label %118
  ]

118:                                              ; preds = %116
  %119 = getelementptr inbounds nuw %struct.ForEachState, ptr %12, i32 0, i32 1
  %120 = load i32, ptr %119, align 8
  %121 = add i32 %120, 1
  store i32 %121, ptr %119, align 8
  br label %42, !llvm.loop !22

122:                                              ; preds = %116, %67
  call void @llvm.lifetime.end.p0(i64 16, ptr %12) #8
  br label %123

123:                                              ; preds = %122
  %124 = load ptr, ptr %10, align 8
  store i32 1, ptr %13, align 4
  call void @llvm.lifetime.end.p0(i64 8, ptr %11) #8
  call void @llvm.lifetime.end.p0(i64 8, ptr %10) #8
  call void @llvm.lifetime.end.p0(i64 8, ptr %9) #8
  call void @llvm.lifetime.end.p0(i64 8, ptr %8) #8
  call void @llvm.lifetime.end.p0(i64 8, ptr %7) #8
  ret ptr %124
}