; Function Attrs: nounwind uwtable
define internal fastcc ptr @ExecMergeNotMatched(ptr noundef nonnull %0, ptr readonly captures(address_is_null) %.304.val, i1 noundef zeroext %1) unnamed_addr #0 {
  %3 = alloca i8, align 1
  %4 = alloca i8, align 1
  %5 = load ptr, ptr %0, align 8
  %6 = getelementptr inbounds nuw i8, ptr %5, i64 128
  %7 = load ptr, ptr %6, align 8
  %8 = getelementptr inbounds nuw i8, ptr %7, i64 8
  store ptr null, ptr %8, align 8
  %9 = getelementptr inbounds nuw i8, ptr %0, i64 24
  %10 = load ptr, ptr %9, align 8
  %11 = getelementptr inbounds nuw i8, ptr %7, i64 16
  store ptr %10, ptr %11, align 8
  %12 = getelementptr inbounds nuw i8, ptr %7, i64 24
  store ptr null, ptr %12, align 8
  %.not = icmp eq ptr %.304.val, null
  br i1 %.not, label %.thread, label %.lr.ph

.lr.ph:                                           ; preds = %2
  %13 = getelementptr inbounds nuw i8, ptr %.304.val, i64 4
  %14 = getelementptr inbounds nuw i8, ptr %.304.val, i64 16
  %15 = getelementptr inbounds nuw i8, ptr %7, i64 40
  %16 = load i32, ptr %13, align 4
  %17 = icmp sgt i32 %16, 0
  br i1 %17, label %.lr.ph20, label %.thread

18:                                               ; preds = %ExecQual.exit
  %indvars.iv.next = add nuw nsw i64 %indvars.iv, 1
  %19 = load i32, ptr %13, align 4
  %20 = sext i32 %19 to i64
  %21 = icmp slt i64 %indvars.iv.next, %20
  br i1 %21, label %.lr.ph20, label %.thread

.lr.ph20:                                         ; preds = %.lr.ph, %18
  %indvars.iv = phi i64 [ %indvars.iv.next, %18 ], [ 0, %.lr.ph ]
  %22 = load ptr, ptr %14, align 8
  %23 = getelementptr inbounds nuw %union.ListCell, ptr %22, i64 %indvars.iv
  %24 = load ptr, ptr %23, align 8
  %25 = getelementptr inbounds nuw i8, ptr %24, i64 8
  %26 = load ptr, ptr %25, align 8
  %27 = getelementptr inbounds nuw i8, ptr %26, i64 8
  %28 = load i32, ptr %27, align 8
  %29 = getelementptr inbounds nuw i8, ptr %24, i64 24
  %30 = load ptr, ptr %29, align 8
  call void @llvm.lifetime.start.p0(i64 1, ptr nonnull %4) #9
  %31 = icmp eq ptr %30, null
  br i1 %31, label %ExecQual.exit.thread, label %ExecQual.exit

ExecQual.exit.thread:                             ; preds = %.lr.ph20
  call void @llvm.lifetime.end.p0(i64 1, ptr nonnull %4) #9
  br label %.loopexit

ExecQual.exit:                                    ; preds = %.lr.ph20
  %32 = load ptr, ptr %15, align 8
  %33 = load ptr, ptr @CurrentMemoryContext, align 8
  store ptr %32, ptr @CurrentMemoryContext, align 8
  %34 = getelementptr inbounds nuw i8, ptr %30, i64 32
  %35 = load ptr, ptr %34, align 8
  %36 = call i64 %35(ptr noundef nonnull %30, ptr noundef nonnull %7, ptr noundef nonnull %4) #9
  store ptr %33, ptr @CurrentMemoryContext, align 8
  %.not10 = icmp eq i64 %36, 0
  call void @llvm.lifetime.end.p0(i64 1, ptr nonnull %4) #9
  br i1 %.not10, label %18, label %.loopexit

.loopexit:                                        ; preds = %ExecQual.exit, %ExecQual.exit.thread
  switch i32 %28, label %70 [
    i32 3, label %37
    i32 7, label %.thread
  ]

37:                                               ; preds = %.loopexit
  %38 = getelementptr inbounds nuw i8, ptr %24, i64 16
  %39 = load ptr, ptr %38, align 8
  %40 = getelementptr inbounds nuw i8, ptr %39, i64 128
  %41 = load ptr, ptr %40, align 8
  %42 = getelementptr inbounds nuw i8, ptr %39, i64 8
  %43 = getelementptr inbounds nuw i8, ptr %39, i64 24
  %44 = load ptr, ptr %43, align 8
  call void @llvm.lifetime.start.p0(i64 1, ptr nonnull %3) #9
  %45 = getelementptr inbounds nuw i8, ptr %44, i64 8
  %46 = load ptr, ptr %45, align 8
  %47 = getelementptr inbounds nuw i8, ptr %46, i64 24
  %48 = load ptr, ptr %47, align 8
  call void %48(ptr noundef %44) #9
  %49 = getelementptr inbounds nuw i8, ptr %41, i64 40
  %50 = load ptr, ptr %49, align 8
  %51 = load ptr, ptr @CurrentMemoryContext, align 8
  store ptr %50, ptr @CurrentMemoryContext, align 8
  %52 = getelementptr inbounds nuw i8, ptr %39, i64 40
  %53 = load ptr, ptr %52, align 8
  %54 = call i64 %53(ptr noundef nonnull %42, ptr noundef %41, ptr noundef nonnull %3) #9
  store ptr %51, ptr @CurrentMemoryContext, align 8
  %55 = getelementptr inbounds nuw i8, ptr %44, i64 4
  %56 = load i16, ptr %55, align 4
  %57 = and i16 %56, -3
  store i16 %57, ptr %55, align 4
  %58 = getelementptr inbounds nuw i8, ptr %44, i64 16
  %59 = load ptr, ptr %58, align 8
  %60 = load i32, ptr %59, align 8
  %61 = trunc i32 %60 to i16
  %62 = getelementptr inbounds nuw i8, ptr %44, i64 6
  store i16 %61, ptr %62, align 2
  call void @llvm.lifetime.end.p0(i64 1, ptr nonnull %3) #9
  %63 = getelementptr inbounds nuw i8, ptr %5, i64 400
  store ptr %24, ptr %63, align 8
  %64 = getelementptr inbounds nuw i8, ptr %5, i64 224
  %65 = load ptr, ptr %64, align 8
  %66 = call fastcc ptr @ExecInsert(ptr noundef %0, ptr noundef %65, ptr noundef %44, i1 noundef zeroext %1, ptr noundef null, ptr noundef null)
  %67 = getelementptr inbounds nuw i8, ptr %5, i64 416
  %68 = load double, ptr %67, align 8
  %69 = fadd double %68, 1.000000e+00
  store double %69, ptr %67, align 8
  br label %.thread

70:                                               ; preds = %.loopexit
  %71 = call zeroext i1 @errstart_cold(i32 noundef 21, ptr noundef null) #10
  call void @llvm.assume(i1 %71)
  %72 = call i32 (ptr, ...) @errmsg_internal(ptr noundef nonnull @.str.16) #9
  call void @errfinish(ptr noundef nonnull @.str.1, i32 noundef 3627, ptr noundef nonnull @__func__.ExecMergeNotMatched) #9
  unreachable

.thread:                                          ; preds = %18, %2, %.lr.ph, %37, %.loopexit
  %.1 = phi ptr [ %66, %37 ], [ null, %.loopexit ], [ null, %.lr.ph ], [ null, %2 ], [ null, %18 ]
  ret ptr %.1
}